target datalayout = "e-m:e-p270:32:32-p271:32:32-p272:64:64-i64:64-i128:128-f80:128-n8:16:32:64-S128"
target triple = "x86_64-pc-linux-gnu"

%struct.pmix_pointer_array_t = type { %struct.pmix_object_t, i32, i32, i32, i32, i32, ptr, ptr }
%struct.pmix_object_t = type { %union.pthread_mutex_t, ptr, i32, %struct.pmix_tma }
%union.pthread_mutex_t = type { %struct.__pthread_mutex_s }
%struct.__pthread_mutex_s = type { i32, i32, i32, i32, i32, i16, i16, %struct.__pthread_internal_list }
%struct.__pthread_internal_list = type { ptr, ptr }
%struct.pmix_tma = type { ptr, ptr, ptr, ptr, ptr, ptr, ptr, ptr }
%struct.pmix_mca_base_framework_t = type { ptr, ptr, ptr, ptr, ptr, ptr, i32, i32, ptr, ptr, i32, i32, %struct.pmix_list_t, %struct.pmix_list_t }
%struct.pmix_list_t = type { %struct.pmix_object_t, %struct.pmix_list_item_t, i64 }
%struct.pmix_list_item_t = type { %struct.pmix_object_t, ptr, ptr, i32 }
%struct.pmix_output_desc_t = type { i8, i8, i32, i8, i32, ptr, ptr, i32, ptr, i32, i8, i8, i8, i8, ptr, i32, i32 }
%struct.pmix_bfrop_type_info_t = type { %struct.pmix_object_t, i16, ptr, ptr, ptr, ptr, ptr }

@pmix_bfrops_base_framework = external global %struct.pmix_mca_base_framework_t, align 8
@pmix_output_info = external global [0 x %struct.pmix_output_desc_t], align 8
@.str.12 = private unnamed_addr constant [31 x i8] c"pmix20_bfrop_unpack_time * %d\0A\00", align 1

; Function Attrs: inlinehint nounwind uwtable
define internal ptr @pmix_pointer_array_get_item(ptr noundef %0, i32 noundef %1) #3 {
  %3 = alloca ptr, align 8
  %4 = alloca ptr, align 8
  %5 = alloca i32, align 4
  %6 = alloca ptr, align 8
  %7 = alloca i32, align 4
  store ptr %0, ptr %4, align 8, !tbaa !13
  store i32 %1, ptr %5, align 4, !tbaa !11
  call void @llvm.lifetime.start.p0(i64 8, ptr %6) #11
  %8 = load i32, ptr %5, align 4, !tbaa !11
  %9 = icmp sgt i32 0, %8
  br i1 %9, label %16, label %10

10:                                               ; preds = %2
  %11 = load ptr, ptr %4, align 8, !tbaa !13
  %12 = getelementptr inbounds nuw %struct.pmix_pointer_array_t, ptr %11, i32 0, i32 3
  %13 = load i32, ptr %12, align 8, !tbaa !33
  %14 = load i32, ptr %5, align 4, !tbaa !11
  %15 = icmp sle i32 %13, %14
  br label %16

16:                                               ; preds = %10, %2
  %17 = phi i1 [ true, %2 ], [ %15, %10 ]
  %18 = xor i1 %17, true
  %19 = xor i1 %18, true
  %20 = zext i1 %19 to i32
  %21 = sext i32 %20 to i64
  %22 = call i64 @llvm.expect.i64(i64 %21, i64 0)
  %23 = icmp ne i64 %22, 0
  br i1 %23, label %24, label %25

24:                                               ; preds = %16
  store ptr null, ptr %3, align 8
  store i32 1, ptr %7, align 4
  br label %34

25:                                               ; preds = %16
  %26 = load ptr, ptr %4, align 8, !tbaa !13
  %27 = getelementptr inbounds nuw %struct.pmix_pointer_array_t, ptr %26, i32 0, i32 7
  %28 = load ptr, ptr %27, align 8, !tbaa !36
  %29 = load i32, ptr %5, align 4, !tbaa !11
  %30 = sext i32 %29 to i64
  %31 = getelementptr inbounds ptr, ptr %28, i64 %30
  %32 = load ptr, ptr %31, align 8, !tbaa !3
  store ptr %32, ptr %6, align 8, !tbaa !3
  %33 = load ptr, ptr %6, align 8, !tbaa !3
  store ptr %33, ptr %3, align 8
  store i32 1, ptr %7, align 4
  br label %34

34:                                               ; preds = %25, %24
  call void @llvm.lifetime.end.p0(i64 8, ptr %6) #11
  %35 = load ptr, ptr %3, align 8
  ret ptr %35
}

; Function Attrs: nounwind uwtable
define i32 @pmix20_bfrop_unpack_time(ptr noundef %0, ptr noundef %1, ptr noundef %2, ptr noundef %3, i16 noundef zeroext %4) #0 {
  %6 = alloca i32, align 4
  %7 = alloca ptr, align 8
  %8 = alloca ptr, align 8
  %9 = alloca ptr, align 8
  %10 = alloca ptr, align 8
  %11 = alloca i16, align 2
  %12 = alloca i32, align 4
  %13 = alloca i32, align 4
  %14 = alloca ptr, align 8
  %15 = alloca i64, align 8
  %16 = alloca i32, align 4
  %17 = alloca i64, align 8
  %18 = alloca ptr, align 8
  %19 = alloca i32, align 4
  store ptr %0, ptr %7, align 8, !tbaa !13
  store ptr %1, ptr %8, align 8, !tbaa !3
  store ptr %2, ptr %9, align 8, !tbaa !3
  store ptr %3, ptr %10, align 8, !tbaa !7
  store i16 %4, ptr %11, align 2, !tbaa !9
  call void @llvm.lifetime.start.p0(i64 4, ptr %12) #11
  call void @llvm.lifetime.start.p0(i64 4, ptr %13) #11
  call void @llvm.lifetime.start.p0(i64 8, ptr %14) #11
  %20 = load ptr, ptr %9, align 8, !tbaa !3
  store ptr %20, ptr %14, align 8, !tbaa !53
  call void @llvm.lifetime.start.p0(i64 8, ptr %15) #11
  call void @llvm.lifetime.start.p0(i64 4, ptr %16) #11
  call void @llvm.lifetime.start.p0(i64 8, ptr %17) #11
  %21 = load i32, ptr getelementptr inbounds nuw (%struct.pmix_mca_base_framework_t, ptr @pmix_bfrops_base_framework, i32 0, i32 11), align 4, !tbaa !15
  %22 = icmp sge i32 %21, 0
  br i1 %22, label %23, label %37

23:                                               ; preds = %5
  %24 = load i32, ptr getelementptr inbounds nuw (%struct.pmix_mca_base_framework_t, ptr @pmix_bfrops_base_framework, i32 0, i32 11), align 4, !tbaa !15
  %25 = icmp slt i32 %24, 64
  br i1 %25, label %26, label %37

26:                                               ; preds = %23
  %27 = load i32, ptr getelementptr inbounds nuw (%struct.pmix_mca_base_framework_t, ptr @pmix_bfrops_base_framework, i32 0, i32 11), align 4, !tbaa !15
  %28 = sext i32 %27 to i64
  %29 = getelementptr inbounds [0 x %struct.pmix_output_desc_t], ptr @pmix_output_info, i64 0, i64 %28
  %30 = getelementptr inbounds nuw %struct.pmix_output_desc_t, ptr %29, i32 0, i32 2
  %31 = load i32, ptr %30, align 4, !tbaa !26
  %32 = icmp sge i32 %31, 20
  br i1 %32, label %33, label %37

33:                                               ; preds = %26
  %34 = load i32, ptr getelementptr inbounds nuw (%struct.pmix_mca_base_framework_t, ptr @pmix_bfrops_base_framework, i32 0, i32 11), align 4, !tbaa !15
  %35 = load ptr, ptr %10, align 8, !tbaa !7
  %36 = load i32, ptr %35, align 4, !tbaa !11
  call void (i32, ptr, ...) @pmix_output(i32 noundef %34, ptr noundef @.str.12, i32 noundef %36)
  br label %37

37:                                               ; preds = %33, %26, %23, %5
  store i32 0, ptr %12, align 4, !tbaa !11
  br label %38

38:                                               ; preds = %70, %37
  %39 = load i32, ptr %12, align 4, !tbaa !11
  %40 = load ptr, ptr %10, align 8, !tbaa !7
  %41 = load i32, ptr %40, align 4, !tbaa !11
  %42 = icmp slt i32 %39, %41
  br i1 %42, label %43, label %73

43:                                               ; preds = %38
  store i32 1, ptr %13, align 4, !tbaa !11
  br label %44

44:                                               ; preds = %43
  call void @llvm.lifetime.start.p0(i64 8, ptr %18) #11
  %45 = load ptr, ptr %7, align 8, !tbaa !13
  %46 = call ptr @pmix_pointer_array_get_item(ptr noundef %45, i32 noundef 15)
  store ptr %46, ptr %18, align 8, !tbaa !3
  %47 = load ptr, ptr %18, align 8, !tbaa !3
  %48 = icmp eq ptr null, %47
  br i1 %48, label %49, label %50

49:                                               ; preds = %44
  store i32 -16, ptr %16, align 4, !tbaa !11
  br label %57

50:                                               ; preds = %44
  %51 = load ptr, ptr %18, align 8, !tbaa !3
  %52 = getelementptr inbounds nuw %struct.pmix_bfrop_type_info_t, ptr %51, i32 0, i32 4
  %53 = load ptr, ptr %52, align 8, !tbaa !31
  %54 = load ptr, ptr %7, align 8, !tbaa !13
  %55 = load ptr, ptr %8, align 8, !tbaa !3
  %56 = call i32 %53(ptr noundef %54, ptr noundef %55, ptr noundef %17, ptr noundef %13, i16 noundef zeroext 15)
  store i32 %56, ptr %16, align 4, !tbaa !11
  br label %57

57:                                               ; preds = %50, %49
  call void @llvm.lifetime.end.p0(i64 8, ptr %18) #11
  br label %58

58:                                               ; preds = %57
  br label %59

59:                                               ; preds = %58
  %60 = load i32, ptr %16, align 4, !tbaa !11
  %61 = icmp ne i32 0, %60
  br i1 %61, label %62, label %64

62:                                               ; preds = %59
  %63 = load i32, ptr %16, align 4, !tbaa !11
  store i32 %63, ptr %6, align 4
  store i32 1, ptr %19, align 4
  br label %74

64:                                               ; preds = %59
  %65 = load i64, ptr %17, align 8, !tbaa !54
  store i64 %65, ptr %15, align 8, !tbaa !54
  %66 = load ptr, ptr %14, align 8, !tbaa !53
  %67 = load i32, ptr %12, align 4, !tbaa !11
  %68 = sext i32 %67 to i64
  %69 = getelementptr inbounds i64, ptr %66, i64 %68
  call void @llvm.memcpy.p0.p0.i64(ptr align 8 %69, ptr align 8 %15, i64 8, i1 false)
  br label %70

70:                                               ; preds = %64
  %71 = load i32, ptr %12, align 4, !tbaa !11
  %72 = add nsw i32 %71, 1
  store i32 %72, ptr %12, align 4, !tbaa !11
  br label %38, !llvm.loop !95

73:                                               ; preds = %38
  store i32 0, ptr %6, align 4
  store i32 1, ptr %19, align 4
  br label %74

74:                                               ; preds = %73, %62
  call void @llvm.lifetime.end.p0(i64 8, ptr %17) #11
  call void @llvm.lifetime.end.p0(i64 4, ptr %16) #11
  call void @llvm.lifetime.end.p0(i64 8, ptr %15) #11
  call void @llvm.lifetime.end.p0(i64 8, ptr %14) #11
  call void @llvm.lifetime.end.p0(i64 4, ptr %13) #11
  call void @llvm.lifetime.end.p0(i64 4, ptr %12) #11
  %75 = load i32, ptr %6, align 4
  ret i32 %75
}