; Function Attrs: nounwind uwtable
define i32 @pmix20_bfrop_unpack_time(ptr noundef %0, ptr noundef %1, ptr noundef writeonly captures(none) %2, ptr noundef readonly captures(none) %3, i16 noundef zeroext %4) local_unnamed_addr #0 {
  %6 = alloca i32, align 4
  %7 = alloca i64, align 8
  call void @llvm.lifetime.start.p0(i64 4, ptr nonnull %6) #10
  call void @llvm.lifetime.start.p0(i64 8, ptr nonnull %7) #10
  %8 = load i32, ptr getelementptr inbounds nuw (i8, ptr @pmix_bfrops_base_framework, i64 76), align 4, !tbaa !7
  %or.cond = icmp ult i32 %8, 64
  br i1 %or.cond, label %9, label %16

9:                                                ; preds = %5
  %10 = zext nneg i32 %8 to i64
  %11 = getelementptr inbounds nuw [0 x %struct.pmix_output_desc_t], ptr @pmix_output_info, i64 0, i64 %10, i32 2
  %12 = load i32, ptr %11, align 4, !tbaa !19
  %13 = icmp sgt i32 %12, 19
  br i1 %13, label %14, label %16

14:                                               ; preds = %9
  %15 = load i32, ptr %3, align 4, !tbaa !3
  tail call void (i32, ptr, ...) @pmix_output(i32 noundef %8, ptr noundef nonnull @.str.12, i32 noundef %15) #10
  br label %16

16:                                               ; preds = %14, %9, %5
  %17 = getelementptr inbounds nuw i8, ptr %0, i64 152
  %18 = load i32, ptr %3, align 4, !tbaa !3
  %19 = icmp sgt i32 %18, 0
  br i1 %19, label %.lr.ph, label %.thread

.lr.ph:                                           ; preds = %16
  %20 = getelementptr inbounds nuw i8, ptr %0, i64 128
  br label %21

21:                                               ; preds = %.lr.ph, %31
  %indvars.iv = phi i64 [ 0, %.lr.ph ], [ %indvars.iv.next, %31 ]
  store i32 1, ptr %6, align 4, !tbaa !3
  %22 = load i32, ptr %20, align 8, !tbaa !26
  %.not.i = icmp sgt i32 %22, 15
  br i1 %.not.i, label %pmix_pointer_array_get_item.exit, label %.thread, !prof !29

pmix_pointer_array_get_item.exit:                 ; preds = %21
  %23 = load ptr, ptr %17, align 8, !tbaa !30
  %24 = getelementptr inbounds nuw i8, ptr %23, i64 120
  %25 = load ptr, ptr %24, align 8, !tbaa !31
  %26 = icmp eq ptr %25, null
  br i1 %26, label %.thread, label %27

27:                                               ; preds = %pmix_pointer_array_get_item.exit
  %28 = getelementptr inbounds nuw i8, ptr %25, i64 144
  %29 = load ptr, ptr %28, align 8, !tbaa !32
  %30 = call i32 %29(ptr noundef nonnull %0, ptr noundef %1, ptr noundef nonnull %7, ptr noundef nonnull %6, i16 noundef zeroext 15) #10
  %.not = icmp eq i32 %30, 0
  br i1 %.not, label %31, label %.thread

31:                                               ; preds = %27
  %32 = load i64, ptr %7, align 8, !tbaa !44
  %33 = getelementptr inbounds nuw i64, ptr %2, i64 %indvars.iv
  store i64 %32, ptr %33, align 8
  %indvars.iv.next = add nuw nsw i64 %indvars.iv, 1
  %34 = load i32, ptr %3, align 4, !tbaa !3
  %35 = sext i32 %34 to i64
  %36 = icmp slt i64 %indvars.iv.next, %35
  br i1 %36, label %21, label %.thread, !llvm.loop !68

.thread:                                          ; preds = %27, %31, %pmix_pointer_array_get_item.exit, %21, %16
  %.0 = phi i32 [ 0, %16 ], [ -16, %21 ], [ -16, %pmix_pointer_array_get_item.exit ], [ 0, %31 ], [ %30, %27 ]
  call void @llvm.lifetime.end.p0(i64 8, ptr nonnull %7) #10
  call void @llvm.lifetime.end.p0(i64 4, ptr nonnull %6) #10
  ret i32 %.0
}